target datalayout = "e-m:e-p270:32:32-p271:32:32-p272:64:64-i64:64-i128:128-f80:128-n8:16:32:64-S128"
target triple = "x86_64-pc-linux-gnu"

%struct.IDAMemRec = type { double, ptr, ptr, i32, double, double, ptr, i32, ptr, ptr, i32, ptr, ptr, i32, i32, double, double, ptr, i32, i32, i32, ptr, ptr, i32, ptr, ptr, ptr, i32, double, i32, i32, double, ptr, ptr, i32, ptr, ptr, i32, i32, i32, double, ptr, ptr, [6 x ptr], [6 x double], [6 x double], [6 x double], [6 x double], [6 x double], ptr, ptr, ptr, ptr, ptr, ptr, ptr, ptr, ptr, ptr, ptr, ptr, ptr, ptr, ptr, [6 x ptr], ptr, ptr, ptr, ptr, [6 x ptr], ptr, ptr, ptr, ptr, ptr, ptr, ptr, ptr, ptr, ptr, ptr, ptr, ptr, ptr, [6 x ptr], ptr, ptr, ptr, ptr, ptr, double, ptr, ptr, i32, i32, i32, i32, i32, i32, i32, double, double, double, i32, double, i32, i32, i32, i32, double, double, double, double, double, double, double, double, double, double, double, double, double, double, i32, i32, i32, i32, i32, i64, double, i32, i64, i64, i64, i64, i64, i64, i64, i64, i64, i64, i64, i64, i64, i64, i64, i64, i64, i64, i64, i64, i64, i64, i64, i64, ptr, ptr, ptr, i32, i32, i32, i32, i32, i32, i32, i32, i32, i32, i32, i32, i32, ptr, ptr, ptr, ptr, ptr, ptr, i32, i32, i32, i32, i32, i32, double, double, double, ptr, i32, ptr, ptr, double, double, double, ptr, ptr, ptr, double, double, i32, i32, i64, ptr, i32, i32, ptr, i32 }
%struct.IDAadjMemRec = type { double, double, i32, i32, double, ptr, i32, ptr, i32, ptr, ptr, i32, i64, ptr, i64, i32, ptr, ptr, ptr, ptr, i32, i32, i32, i32, i32, [6 x ptr], [6 x ptr], [6 x double], ptr, ptr, ptr, ptr, i64 }
%struct.IDABMemRec = type { i32, double, ptr, i32, i32, ptr, ptr, ptr, ptr, ptr, ptr, ptr, ptr, ptr, double, ptr, ptr, ptr }

@.str = private unnamed_addr constant [5 x i8] c"IDAA\00", align 1
@.str.2 = private unnamed_addr constant [24 x i8] c"ida_mem = NULL illegal.\00", align 1
@.str.7 = private unnamed_addr constant [51 x i8] c"Illegal attempt to call before calling IDAadjInit.\00", align 1
@.str.16 = private unnamed_addr constant [25 x i8] c"Illegal value for which.\00", align 1
@.str.24 = private unnamed_addr constant [13 x i8] c"IDAQuadInitB\00", align 1

; Function Attrs: nounwind uwtable
define i32 @IDAQuadReInitB(ptr noundef %0, i32 noundef %1, ptr noundef %2) #0 {
  %4 = alloca i32, align 4
  %5 = alloca ptr, align 8
  %6 = alloca i32, align 4
  %7 = alloca ptr, align 8
  %8 = alloca ptr, align 8
  %9 = alloca ptr, align 8
  %10 = alloca ptr, align 8
  %11 = alloca ptr, align 8
  %12 = alloca i32, align 4
  store ptr %0, ptr %5, align 8, !tbaa !3
  store i32 %1, ptr %6, align 4, !tbaa !9
  store ptr %2, ptr %7, align 8, !tbaa !74
  call void @llvm.lifetime.start.p0(i64 8, ptr %8) #6
  call void @llvm.lifetime.start.p0(i64 8, ptr %9) #6
  call void @llvm.lifetime.start.p0(i64 8, ptr %10) #6
  call void @llvm.lifetime.start.p0(i64 8, ptr %11) #6
  %13 = load ptr, ptr %5, align 8, !tbaa !3
  %14 = icmp eq ptr %13, null
  br i1 %14, label %15, label %16

15:                                               ; preds = %3
  call void (ptr, i32, ptr, ptr, ptr, ...) @IDAProcessError(ptr noundef null, i32 noundef -20, ptr noundef @.str, ptr noundef @.str.24, ptr noundef @.str.2)
  store i32 -20, ptr %4, align 4
  store i32 1, ptr %12, align 4
  br label %60

16:                                               ; preds = %3
  %17 = load ptr, ptr %5, align 8, !tbaa !3
  store ptr %17, ptr %8, align 8, !tbaa !11
  %18 = load ptr, ptr %8, align 8, !tbaa !11
  %19 = getelementptr inbounds nuw %struct.IDAMemRec, ptr %18, i32 0, i32 205
  %20 = load i32, ptr %19, align 8, !tbaa !51
  %21 = icmp eq i32 %20, 0
  br i1 %21, label %22, label %24

22:                                               ; preds = %16
  %23 = load ptr, ptr %8, align 8, !tbaa !11
  call void (ptr, i32, ptr, ptr, ptr, ...) @IDAProcessError(ptr noundef %23, i32 noundef -101, ptr noundef @.str, ptr noundef @.str.24, ptr noundef @.str.7)
  store i32 -101, ptr %4, align 4
  store i32 1, ptr %12, align 4
  br label %60

24:                                               ; preds = %16
  %25 = load ptr, ptr %8, align 8, !tbaa !11
  %26 = getelementptr inbounds nuw %struct.IDAMemRec, ptr %25, i32 0, i32 204
  %27 = load ptr, ptr %26, align 8, !tbaa !15
  store ptr %27, ptr %9, align 8, !tbaa !13
  %28 = load i32, ptr %6, align 4, !tbaa !9
  %29 = load ptr, ptr %9, align 8, !tbaa !13
  %30 = getelementptr inbounds nuw %struct.IDAadjMemRec, ptr %29, i32 0, i32 6
  %31 = load i32, ptr %30, align 8, !tbaa !46
  %32 = icmp sge i32 %28, %31
  br i1 %32, label %33, label %35

33:                                               ; preds = %24
  %34 = load ptr, ptr %8, align 8, !tbaa !11
  call void (ptr, i32, ptr, ptr, ptr, ...) @IDAProcessError(ptr noundef %34, i32 noundef -22, ptr noundef @.str, ptr noundef @.str.24, ptr noundef @.str.16)
  store i32 -22, ptr %4, align 4
  store i32 1, ptr %12, align 4
  br label %60

35:                                               ; preds = %24
  %36 = load ptr, ptr %9, align 8, !tbaa !13
  %37 = getelementptr inbounds nuw %struct.IDAadjMemRec, ptr %36, i32 0, i32 5
  %38 = load ptr, ptr %37, align 8, !tbaa !44
  store ptr %38, ptr %10, align 8, !tbaa !132
  br label %39

39:                                               ; preds = %49, %35
  %40 = load ptr, ptr %10, align 8, !tbaa !132
  %41 = icmp ne ptr %40, null
  br i1 %41, label %42, label %53

42:                                               ; preds = %39
  %43 = load i32, ptr %6, align 4, !tbaa !9
  %44 = load ptr, ptr %10, align 8, !tbaa !132
  %45 = getelementptr inbounds nuw %struct.IDABMemRec, ptr %44, i32 0, i32 0
  %46 = load i32, ptr %45, align 8, !tbaa !192
  %47 = icmp eq i32 %43, %46
  br i1 %47, label %48, label %49

48:                                               ; preds = %42
  br label %53

49:                                               ; preds = %42
  %50 = load ptr, ptr %10, align 8, !tbaa !132
  %51 = getelementptr inbounds nuw %struct.IDABMemRec, ptr %50, i32 0, i32 17
  %52 = load ptr, ptr %51, align 8, !tbaa !133
  store ptr %52, ptr %10, align 8, !tbaa !132
  br label %39, !llvm.loop !212

53:                                               ; preds = %48, %39
  %54 = load ptr, ptr %10, align 8, !tbaa !132
  %55 = getelementptr inbounds nuw %struct.IDABMemRec, ptr %54, i32 0, i32 2
  %56 = load ptr, ptr %55, align 8, !tbaa !135
  store ptr %56, ptr %11, align 8, !tbaa !3
  %57 = load ptr, ptr %5, align 8, !tbaa !3
  %58 = load ptr, ptr %7, align 8, !tbaa !74
  %59 = call i32 @IDAQuadReInit(ptr noundef %57, ptr noundef %58)
  store i32 %59, ptr %4, align 4
  store i32 1, ptr %12, align 4
  br label %60

60:                                               ; preds = %53, %33, %22, %15
  call void @llvm.lifetime.end.p0(i64 8, ptr %11) #6
  call void @llvm.lifetime.end.p0(i64 8, ptr %10) #6
  call void @llvm.lifetime.end.p0(i64 8, ptr %9) #6
  call void @llvm.lifetime.end.p0(i64 8, ptr %8) #6
  %61 = load i32, ptr %4, align 4
  ret i32 %61
}